target datalayout = "e-m:e-p270:32:32-p271:32:32-p272:64:64-i64:64-i128:128-f80:128-n8:16:32:64-S128"
target triple = "x86_64-pc-linux-gnu"

%struct.SQLFunctionParseInfo = type { ptr, i32, ptr, ptr, i32 }
%struct.ParseState = type { ptr, ptr, i32, i32, ptr, ptr, ptr, ptr, ptr, ptr, i8, ptr, ptr, ptr, ptr, ptr, ptr, i8, ptr, i32, i32, ptr, ptr, i8, i8, ptr, i8, i8, i8, i8, i8, ptr, ptr, ptr, ptr, ptr, ptr }
%struct.Node = type { i32 }
%struct.ParamRef = type { i32, i32, i32 }
%struct.Expr = type { i32 }
%struct.Param = type { %struct.Expr, i32, i32, i32, i32, i32, i32 }

; Function Attrs: inlinehint nounwind uwtable
define internal ptr @newNode(i64 noundef %0, i32 noundef %1) #2 {
  %3 = alloca i64, align 8
  %4 = alloca i32, align 4
  %5 = alloca ptr, align 8
  store i64 %0, ptr %3, align 8
  store i32 %1, ptr %4, align 4
  call void @llvm.lifetime.start.p0(i64 8, ptr %5) #8
  %6 = load i64, ptr %3, align 8
  %7 = call ptr @palloc0(i64 noundef %6)
  store ptr %7, ptr %5, align 8
  %8 = load i32, ptr %4, align 4
  %9 = load ptr, ptr %5, align 8
  %10 = getelementptr inbounds nuw %struct.Node, ptr %9, i32 0, i32 0
  store i32 %8, ptr %10, align 4
  %11 = load ptr, ptr %5, align 8
  call void @llvm.lifetime.end.p0(i64 8, ptr %5) #8
  ret ptr %11
}

; Function Attrs: nounwind uwtable
define internal ptr @sql_fn_make_param(ptr noundef %0, i32 noundef %1, i32 noundef %2) #0 {
  %4 = alloca ptr, align 8
  %5 = alloca i32, align 4
  %6 = alloca i32, align 4
  %7 = alloca ptr, align 8
  store ptr %0, ptr %4, align 8
  store i32 %1, ptr %5, align 4
  store i32 %2, ptr %6, align 4
  call void @llvm.lifetime.start.p0(i64 8, ptr %7) #8
  %8 = call ptr @newNode(i64 noundef 28, i32 noundef 8)
  store ptr %8, ptr %7, align 8
  %9 = load ptr, ptr %7, align 8
  %10 = getelementptr inbounds nuw %struct.Param, ptr %9, i32 0, i32 1
  store i32 0, ptr %10, align 4
  %11 = load i32, ptr %5, align 4
  %12 = load ptr, ptr %7, align 8
  %13 = getelementptr inbounds nuw %struct.Param, ptr %12, i32 0, i32 2
  store i32 %11, ptr %13, align 4
  %14 = load ptr, ptr %4, align 8
  %15 = getelementptr inbounds nuw %struct.SQLFunctionParseInfo, ptr %14, i32 0, i32 2
  %16 = load ptr, ptr %15, align 8
  %17 = load i32, ptr %5, align 4
  %18 = sub i32 %17, 1
  %19 = sext i32 %18 to i64
  %20 = getelementptr inbounds i32, ptr %16, i64 %19
  %21 = load i32, ptr %20, align 4
  %22 = load ptr, ptr %7, align 8
  %23 = getelementptr inbounds nuw %struct.Param, ptr %22, i32 0, i32 3
  store i32 %21, ptr %23, align 4
  %24 = load ptr, ptr %7, align 8
  %25 = getelementptr inbounds nuw %struct.Param, ptr %24, i32 0, i32 4
  store i32 -1, ptr %25, align 4
  %26 = load ptr, ptr %7, align 8
  %27 = getelementptr inbounds nuw %struct.Param, ptr %26, i32 0, i32 3
  %28 = load i32, ptr %27, align 4
  %29 = call i32 @get_typcollation(i32 noundef %28)
  %30 = load ptr, ptr %7, align 8
  %31 = getelementptr inbounds nuw %struct.Param, ptr %30, i32 0, i32 5
  store i32 %29, ptr %31, align 4
  %32 = load i32, ptr %6, align 4
  %33 = load ptr, ptr %7, align 8
  %34 = getelementptr inbounds nuw %struct.Param, ptr %33, i32 0, i32 6
  store i32 %32, ptr %34, align 4
  %35 = load ptr, ptr %4, align 8
  %36 = getelementptr inbounds nuw %struct.SQLFunctionParseInfo, ptr %35, i32 0, i32 4
  %37 = load i32, ptr %36, align 8
  %38 = icmp ne i32 %37, 0
  br i1 %38, label %39, label %50

39:                                               ; preds = %3
  %40 = load ptr, ptr %7, align 8
  %41 = getelementptr inbounds nuw %struct.Param, ptr %40, i32 0, i32 5
  %42 = load i32, ptr %41, align 4
  %43 = icmp ne i32 %42, 0
  br i1 %43, label %44, label %50

44:                                               ; preds = %39
  %45 = load ptr, ptr %4, align 8
  %46 = getelementptr inbounds nuw %struct.SQLFunctionParseInfo, ptr %45, i32 0, i32 4
  %47 = load i32, ptr %46, align 8
  %48 = load ptr, ptr %7, align 8
  %49 = getelementptr inbounds nuw %struct.Param, ptr %48, i32 0, i32 5
  store i32 %47, ptr %49, align 4
  br label %50

50:                                               ; preds = %44, %39, %3
  %51 = load ptr, ptr %7, align 8
  call void @llvm.lifetime.end.p0(i64 8, ptr %7) #8
  ret ptr %51
}

; Function Attrs: nounwind uwtable
define internal ptr @sql_fn_param_ref(ptr noundef %0, ptr noundef %1) #0 {
  %3 = alloca ptr, align 8
  %4 = alloca ptr, align 8
  %5 = alloca ptr, align 8
  %6 = alloca ptr, align 8
  %7 = alloca i32, align 4
  %8 = alloca i32, align 4
  store ptr %0, ptr %4, align 8
  store ptr %1, ptr %5, align 8
  call void @llvm.lifetime.start.p0(i64 8, ptr %6) #8
  %9 = load ptr, ptr %4, align 8
  %10 = getelementptr inbounds nuw %struct.ParseState, ptr %9, i32 0, i32 36
  %11 = load ptr, ptr %10, align 8
  store ptr %11, ptr %6, align 8
  call void @llvm.lifetime.start.p0(i64 4, ptr %7) #8
  %12 = load ptr, ptr %5, align 8
  %13 = getelementptr inbounds nuw %struct.ParamRef, ptr %12, i32 0, i32 1
  %14 = load i32, ptr %13, align 4
  store i32 %14, ptr %7, align 4
  %15 = load i32, ptr %7, align 4
  %16 = icmp sle i32 %15, 0
  br i1 %16, label %23, label %17

17:                                               ; preds = %2
  %18 = load i32, ptr %7, align 4
  %19 = load ptr, ptr %6, align 8
  %20 = getelementptr inbounds nuw %struct.SQLFunctionParseInfo, ptr %19, i32 0, i32 1
  %21 = load i32, ptr %20, align 8
  %22 = icmp sgt i32 %18, %21
  br i1 %22, label %23, label %24

23:                                               ; preds = %17, %2
  store ptr null, ptr %3, align 8
  store i32 1, ptr %8, align 4
  br label %31

24:                                               ; preds = %17
  %25 = load ptr, ptr %6, align 8
  %26 = load i32, ptr %7, align 4
  %27 = load ptr, ptr %5, align 8
  %28 = getelementptr inbounds nuw %struct.ParamRef, ptr %27, i32 0, i32 2
  %29 = load i32, ptr %28, align 4
  %30 = call ptr @sql_fn_make_param(ptr noundef %25, i32 noundef %26, i32 noundef %29)
  store ptr %30, ptr %3, align 8
  store i32 1, ptr %8, align 4
  br label %31

31:                                               ; preds = %24, %23
  call void @llvm.lifetime.end.p0(i64 4, ptr %7) #8
  call void @llvm.lifetime.end.p0(i64 8, ptr %6) #8
  %32 = load ptr, ptr %3, align 8
  ret ptr %32
}