; Function Attrs: nounwind uwtable
define internal noundef ptr @sql_fn_param_ref(ptr noundef readonly captures(none) %0, ptr noundef readonly captures(none) %1) #0 {
  %3 = getelementptr inbounds nuw i8, ptr %0, i64 232
  %4 = load ptr, ptr %3, align 8
  %5 = getelementptr inbounds nuw i8, ptr %1, i64 4
  %6 = load i32, ptr %5, align 4
  %7 = icmp slt i32 %6, 1
  br i1 %7, label %sql_fn_make_param.exit, label %8

8:                                                ; preds = %2
  %9 = getelementptr inbounds nuw i8, ptr %4, i64 8
  %10 = load i32, ptr %9, align 8
  %11 = icmp sgt i32 %6, %10
  br i1 %11, label %sql_fn_make_param.exit, label %12

12:                                               ; preds = %8
  %13 = getelementptr inbounds nuw i8, ptr %1, i64 8
  %14 = load i32, ptr %13, align 4
  %15 = tail call noundef ptr @palloc0(i64 noundef 28) #11
  store i32 8, ptr %15, align 4
  %16 = getelementptr inbounds nuw i8, ptr %15, i64 4
  store i32 0, ptr %16, align 4
  %17 = getelementptr inbounds nuw i8, ptr %15, i64 8
  store i32 %6, ptr %17, align 4
  %18 = getelementptr inbounds nuw i8, ptr %4, i64 16
  %19 = load ptr, ptr %18, align 8
  %20 = zext nneg i32 %6 to i64
  %21 = getelementptr i32, ptr %19, i64 %20
  %22 = getelementptr i8, ptr %21, i64 -4
  %23 = load i32, ptr %22, align 4
  %24 = getelementptr inbounds nuw i8, ptr %15, i64 12
  store i32 %23, ptr %24, align 4
  %25 = getelementptr inbounds nuw i8, ptr %15, i64 16
  store i32 -1, ptr %25, align 4
  %26 = tail call i32 @get_typcollation(i32 noundef %23) #11
  %27 = getelementptr inbounds nuw i8, ptr %15, i64 20
  store i32 %26, ptr %27, align 4
  %28 = getelementptr inbounds nuw i8, ptr %15, i64 24
  store i32 %14, ptr %28, align 4
  %29 = getelementptr inbounds nuw i8, ptr %4, i64 32
  %30 = load i32, ptr %29, align 8
  %.not.i = icmp eq i32 %30, 0
  %.not15.i = icmp eq i32 %26, 0
  %or.cond.i = select i1 %.not.i, i1 true, i1 %.not15.i
  br i1 %or.cond.i, label %sql_fn_make_param.exit, label %31

31:                                               ; preds = %12
  store i32 %30, ptr %27, align 4
  br label %sql_fn_make_param.exit

sql_fn_make_param.exit:                           ; preds = %31, %12, %2, %8
  %.0 = phi ptr [ null, %8 ], [ null, %2 ], [ %15, %12 ], [ %15, %31 ]
  ret ptr %.0
}